; Function Attrs: nounwind uwtable
define void @appendVecToMasterVecInt(ptr noundef captures(none) %0, ptr noundef readonly captures(none) %1) local_unnamed_addr #5 {
  %3 = getelementptr i8, ptr %1, i64 4
  %.val8 = load i32, ptr %3, align 4, !tbaa !28
  %4 = icmp sgt i32 %.val8, 0
  br i1 %4, label %.lr.ph, label %.critedge

.lr.ph:                                           ; preds = %2
  %5 = getelementptr i8, ptr %1, i64 8
  %6 = getelementptr inbounds nuw i8, ptr %0, i64 4
  %.phi.trans.insert.i = getelementptr inbounds nuw i8, ptr %0, i64 8
  br label %7

7:                                                ; preds = %.lr.ph, %Vec_PtrPush.exit
  %indvars.iv = phi i64 [ 0, %.lr.ph ], [ %indvars.iv.next, %Vec_PtrPush.exit ]
  %.val7 = load ptr, ptr %5, align 8, !tbaa !37
  %8 = getelementptr inbounds nuw ptr, ptr %.val7, i64 %indvars.iv
  %9 = load ptr, ptr %8, align 8, !tbaa !38
  %10 = tail call noalias dereferenceable_or_null(16) ptr @malloc(i64 noundef 16) #16
  %11 = getelementptr inbounds nuw i8, ptr %9, i64 4
  %12 = load i32, ptr %11, align 4, !tbaa !42
  %13 = getelementptr inbounds nuw i8, ptr %10, i64 4
  store i32 %12, ptr %13, align 4, !tbaa !42
  store i32 %12, ptr %10, align 8, !tbaa !64
  %.not.i = icmp eq i32 %12, 0
  br i1 %.not.i, label %Vec_IntDup.exit, label %14

14:                                               ; preds = %7
  %15 = sext i32 %12 to i64
  %16 = shl nsw i64 %15, 2
  %17 = tail call noalias ptr @malloc(i64 noundef %16) #16
  br label %Vec_IntDup.exit

Vec_IntDup.exit:                                  ; preds = %7, %14
  %.pre-phi12.i = phi i64 [ %16, %14 ], [ 0, %7 ]
  %18 = phi ptr [ %17, %14 ], [ null, %7 ]
  %19 = getelementptr inbounds nuw i8, ptr %10, i64 8
  store ptr %18, ptr %19, align 8, !tbaa !9
  %20 = getelementptr inbounds nuw i8, ptr %9, i64 8
  %21 = load ptr, ptr %20, align 8, !tbaa !9
  tail call void @llvm.memcpy.p0.p0.i64(ptr align 4 %18, ptr align 4 %21, i64 %.pre-phi12.i, i1 false)
  %22 = load i32, ptr %6, align 4, !tbaa !28
  %23 = load i32, ptr %0, align 8, !tbaa !43
  %24 = icmp eq i32 %22, %23
  br i1 %24, label %25, label %.Vec_PtrGrow.exit11_crit_edge.i

.Vec_PtrGrow.exit11_crit_edge.i:                  ; preds = %Vec_IntDup.exit
  %.pre.i = load ptr, ptr %.phi.trans.insert.i, align 8, !tbaa !37
  br label %Vec_PtrPush.exit

25:                                               ; preds = %Vec_IntDup.exit
  %26 = icmp slt i32 %22, 16
  br i1 %26, label %27, label %34

27:                                               ; preds = %25
  %28 = load ptr, ptr %.phi.trans.insert.i, align 8, !tbaa !37
  %.not9.i.i = icmp eq ptr %28, null
  br i1 %.not9.i.i, label %31, label %29

29:                                               ; preds = %27
  %30 = tail call dereferenceable_or_null(128) ptr @realloc(ptr noundef nonnull %28, i64 noundef 128) #17
  br label %Vec_PtrGrow.exit.i

31:                                               ; preds = %27
  %32 = tail call noalias dereferenceable_or_null(128) ptr @malloc(i64 noundef 128) #16
  br label %Vec_PtrGrow.exit.i

Vec_PtrGrow.exit.i:                               ; preds = %31, %29
  %33 = phi ptr [ %30, %29 ], [ %32, %31 ]
  store ptr %33, ptr %.phi.trans.insert.i, align 8, !tbaa !37
  store i32 16, ptr %0, align 8, !tbaa !43
  br label %Vec_PtrPush.exit

34:                                               ; preds = %25
  %35 = shl nuw nsw i32 %22, 1
  %36 = load ptr, ptr %.phi.trans.insert.i, align 8, !tbaa !37
  %.not9.i10.i = icmp eq ptr %36, null
  %37 = zext nneg i32 %35 to i64
  %38 = shl nuw nsw i64 %37, 3
  br i1 %.not9.i10.i, label %41, label %39

39:                                               ; preds = %34
  %40 = tail call ptr @realloc(ptr noundef nonnull %36, i64 noundef %38) #17
  br label %43

41:                                               ; preds = %34
  %42 = tail call noalias ptr @malloc(i64 noundef %38) #16
  br label %43

43:                                               ; preds = %41, %39
  %44 = phi ptr [ %40, %39 ], [ %42, %41 ]
  store ptr %44, ptr %.phi.trans.insert.i, align 8, !tbaa !37
  store i32 %35, ptr %0, align 8, !tbaa !43
  br label %Vec_PtrPush.exit

Vec_PtrPush.exit:                                 ; preds = %.Vec_PtrGrow.exit11_crit_edge.i, %Vec_PtrGrow.exit.i, %43
  %45 = phi ptr [ %.pre.i, %.Vec_PtrGrow.exit11_crit_edge.i ], [ %44, %43 ], [ %33, %Vec_PtrGrow.exit.i ]
  %46 = load i32, ptr %6, align 4, !tbaa !28
  %47 = add nsw i32 %46, 1
  store i32 %47, ptr %6, align 4, !tbaa !28
  %48 = sext i32 %46 to i64
  %49 = getelementptr inbounds ptr, ptr %45, i64 %48
  store ptr %10, ptr %49, align 8, !tbaa !38
  %indvars.iv.next = add nuw nsw i64 %indvars.iv, 1
  %.val = load i32, ptr %3, align 4, !tbaa !28
  %50 = sext i32 %.val to i64
  %51 = icmp slt i64 %indvars.iv.next, %50
  br i1 %51, label %7, label %.critedge, !llvm.loop !90

.critedge:                                        ; preds = %Vec_PtrPush.exit, %2
  ret void
}